target datalayout = "e-m:e-p270:32:32-p271:32:32-p272:64:64-i64:64-i128:128-f80:128-n8:16:32:64-S128"
target triple = "x86_64-pc-linux-gnu"

%struct.pmix_object_t = type { %union.pthread_mutex_t, ptr, i32, %struct.pmix_tma }
%union.pthread_mutex_t = type { %struct.__pthread_mutex_s }
%struct.__pthread_mutex_s = type { i32, i32, i32, i32, i32, i16, i16, %struct.__pthread_internal_list }
%struct.__pthread_internal_list = type { ptr, ptr }
%struct.pmix_tma = type { ptr, ptr, ptr, ptr, ptr, ptr, ptr, ptr }
%struct.pmix_list_t = type { %struct.pmix_object_t, %struct.pmix_list_item_t, i64 }
%struct.pmix_list_item_t = type { %struct.pmix_object_t, ptr, ptr, i32 }
%struct.pmix_class_t = type { ptr, ptr, ptr, ptr, i32, i32, ptr, ptr, i64 }
%struct.tuple_list_item_t = type { %struct.pmix_list_item_t, ptr, ptr, %struct.pmix_list_t, i64, i32, i8 }

@pmix_class_init_epoch = external global i32, align 4
@pmix_list_t_class = external global %struct.pmix_class_t, align 8

; Function Attrs: inlinehint nounwind uwtable
define internal void @pmix_obj_run_constructors(ptr noundef %0) #4 {
  %2 = alloca ptr, align 8
  %3 = alloca ptr, align 8
  store ptr %0, ptr %2, align 8, !tbaa !60
  call void @llvm.lifetime.start.p0(i64 8, ptr %3) #13
  %4 = load ptr, ptr %2, align 8, !tbaa !60
  %5 = getelementptr inbounds nuw %struct.pmix_object_t, ptr %4, i32 0, i32 1
  %6 = load ptr, ptr %5, align 8, !tbaa !54
  %7 = getelementptr inbounds nuw %struct.pmix_class_t, ptr %6, i32 0, i32 6
  %8 = load ptr, ptr %7, align 8, !tbaa !73
  store ptr %8, ptr %3, align 8, !tbaa !12
  br label %9

9:                                                ; preds = %13, %1
  %10 = load ptr, ptr %3, align 8, !tbaa !12
  %11 = load ptr, ptr %10, align 8, !tbaa !12
  %12 = icmp ne ptr null, %11
  br i1 %12, label %13, label %19

13:                                               ; preds = %9
  %14 = load ptr, ptr %3, align 8, !tbaa !12
  %15 = load ptr, ptr %14, align 8, !tbaa !12
  %16 = load ptr, ptr %2, align 8, !tbaa !60
  call void %15(ptr noundef %16)
  %17 = load ptr, ptr %3, align 8, !tbaa !12
  %18 = getelementptr inbounds nuw ptr, ptr %17, i32 1
  store ptr %18, ptr %3, align 8, !tbaa !12
  br label %9, !llvm.loop !74

19:                                               ; preds = %9
  call void @llvm.lifetime.end.p0(i64 8, ptr %3) #13
  ret void
}

; Function Attrs: inlinehint nounwind uwtable
define internal void @pmix_obj_construct_tma(ptr noundef %0, ptr noundef %1) #4 {
  %3 = alloca ptr, align 8
  %4 = alloca ptr, align 8
  store ptr %0, ptr %3, align 8, !tbaa !60
  store ptr %1, ptr %4, align 8, !tbaa !62
  %5 = load ptr, ptr %4, align 8, !tbaa !62
  %6 = icmp eq ptr null, %5
  br i1 %6, label %7, label %32

7:                                                ; preds = %2
  %8 = load ptr, ptr %3, align 8, !tbaa !60
  %9 = getelementptr inbounds nuw %struct.pmix_object_t, ptr %8, i32 0, i32 3
  %10 = getelementptr inbounds nuw %struct.pmix_tma, ptr %9, i32 0, i32 0
  store ptr null, ptr %10, align 8, !tbaa !64
  %11 = load ptr, ptr %3, align 8, !tbaa !60
  %12 = getelementptr inbounds nuw %struct.pmix_object_t, ptr %11, i32 0, i32 3
  %13 = getelementptr inbounds nuw %struct.pmix_tma, ptr %12, i32 0, i32 1
  store ptr null, ptr %13, align 8, !tbaa !65
  %14 = load ptr, ptr %3, align 8, !tbaa !60
  %15 = getelementptr inbounds nuw %struct.pmix_object_t, ptr %14, i32 0, i32 3
  %16 = getelementptr inbounds nuw %struct.pmix_tma, ptr %15, i32 0, i32 2
  store ptr null, ptr %16, align 8, !tbaa !66
  %17 = load ptr, ptr %3, align 8, !tbaa !60
  %18 = getelementptr inbounds nuw %struct.pmix_object_t, ptr %17, i32 0, i32 3
  %19 = getelementptr inbounds nuw %struct.pmix_tma, ptr %18, i32 0, i32 3
  store ptr null, ptr %19, align 8, !tbaa !67
  %20 = load ptr, ptr %3, align 8, !tbaa !60
  %21 = getelementptr inbounds nuw %struct.pmix_object_t, ptr %20, i32 0, i32 3
  %22 = getelementptr inbounds nuw %struct.pmix_tma, ptr %21, i32 0, i32 4
  store ptr null, ptr %22, align 8, !tbaa !68
  %23 = load ptr, ptr %3, align 8, !tbaa !60
  %24 = getelementptr inbounds nuw %struct.pmix_object_t, ptr %23, i32 0, i32 3
  %25 = getelementptr inbounds nuw %struct.pmix_tma, ptr %24, i32 0, i32 5
  store ptr null, ptr %25, align 8, !tbaa !69
  %26 = load ptr, ptr %3, align 8, !tbaa !60
  %27 = getelementptr inbounds nuw %struct.pmix_object_t, ptr %26, i32 0, i32 3
  %28 = getelementptr inbounds nuw %struct.pmix_tma, ptr %27, i32 0, i32 6
  store ptr null, ptr %28, align 8, !tbaa !70
  %29 = load ptr, ptr %3, align 8, !tbaa !60
  %30 = getelementptr inbounds nuw %struct.pmix_object_t, ptr %29, i32 0, i32 3
  %31 = getelementptr inbounds nuw %struct.pmix_tma, ptr %30, i32 0, i32 7
  store ptr null, ptr %31, align 8, !tbaa !71
  br label %36

32:                                               ; preds = %2
  %33 = load ptr, ptr %3, align 8, !tbaa !60
  %34 = getelementptr inbounds nuw %struct.pmix_object_t, ptr %33, i32 0, i32 3
  %35 = load ptr, ptr %4, align 8, !tbaa !62
  call void @llvm.memcpy.p0.p0.i64(ptr align 8 %34, ptr align 8 %35, i64 64, i1 false), !tbaa.struct !72
  br label %36

36:                                               ; preds = %32, %7
  ret void
}

; Function Attrs: nounwind uwtable
define internal void @tuple_list_item_constructor(ptr noundef %0) #0 {
  %2 = alloca ptr, align 8
  store ptr %0, ptr %2, align 8, !tbaa !12
  %3 = load ptr, ptr %2, align 8, !tbaa !12
  %4 = getelementptr inbounds nuw %struct.tuple_list_item_t, ptr %3, i32 0, i32 1
  store ptr null, ptr %4, align 8, !tbaa !43
  %5 = load ptr, ptr %2, align 8, !tbaa !12
  %6 = getelementptr inbounds nuw %struct.tuple_list_item_t, ptr %5, i32 0, i32 2
  store ptr null, ptr %6, align 8, !tbaa !44
  br label %7

7:                                                ; preds = %1
  br label %8

8:                                                ; preds = %7
  br label %9

9:                                                ; preds = %8
  %10 = load i32, ptr @pmix_class_init_epoch, align 4, !tbaa !10
  %11 = load i32, ptr getelementptr inbounds nuw (%struct.pmix_class_t, ptr @pmix_list_t_class, i32 0, i32 4), align 8, !tbaa !52
  %12 = icmp ne i32 %10, %11
  br i1 %12, label %13, label %14

13:                                               ; preds = %9
  call void @pmix_class_initialize(ptr noundef @pmix_list_t_class)
  br label %14

14:                                               ; preds = %13, %9
  %15 = load ptr, ptr %2, align 8, !tbaa !12
  %16 = getelementptr inbounds nuw %struct.tuple_list_item_t, ptr %15, i32 0, i32 3
  %17 = getelementptr inbounds nuw %struct.pmix_object_t, ptr %16, i32 0, i32 1
  store ptr @pmix_list_t_class, ptr %17, align 8, !tbaa !54
  %18 = load ptr, ptr %2, align 8, !tbaa !12
  %19 = getelementptr inbounds nuw %struct.tuple_list_item_t, ptr %18, i32 0, i32 3
  %20 = getelementptr inbounds nuw %struct.pmix_object_t, ptr %19, i32 0, i32 2
  store i32 1, ptr %20, align 8, !tbaa !55
  %21 = load ptr, ptr %2, align 8, !tbaa !12
  %22 = getelementptr inbounds nuw %struct.tuple_list_item_t, ptr %21, i32 0, i32 3
  call void @pmix_obj_construct_tma(ptr noundef %22, ptr noundef null)
  %23 = load ptr, ptr %2, align 8, !tbaa !12
  %24 = getelementptr inbounds nuw %struct.tuple_list_item_t, ptr %23, i32 0, i32 3
  call void @pmix_obj_run_constructors(ptr noundef %24)
  br label %25

25:                                               ; preds = %14
  br label %26

26:                                               ; preds = %25
  br label %27

27:                                               ; preds = %26
  %28 = call i64 @time(ptr noundef null) #13
  %29 = load ptr, ptr %2, align 8, !tbaa !12
  %30 = getelementptr inbounds nuw %struct.tuple_list_item_t, ptr %29, i32 0, i32 4
  store i64 %28, ptr %30, align 8, !tbaa !50
  %31 = load ptr, ptr %2, align 8, !tbaa !12
  %32 = getelementptr inbounds nuw %struct.tuple_list_item_t, ptr %31, i32 0, i32 5
  store i32 0, ptr %32, align 8, !tbaa !13
  %33 = load ptr, ptr %2, align 8, !tbaa !12
  %34 = getelementptr inbounds nuw %struct.tuple_list_item_t, ptr %33, i32 0, i32 6
  store i8 1, ptr %34, align 4, !tbaa !49
  ret void
}