; Function Attrs: nounwind uwtable
define internal void @tuple_list_item_constructor(ptr noundef initializes((144, 160), (200, 212), (216, 280)) %0) #0 {
  %2 = getelementptr inbounds nuw i8, ptr %0, i64 144
  tail call void @llvm.memset.p0.i64(ptr noundef nonnull align 8 dereferenceable(16) %2, i8 0, i64 16, i1 false)
  %3 = load i32, ptr @pmix_class_init_epoch, align 4, !tbaa !24
  %4 = load i32, ptr getelementptr inbounds nuw (i8, ptr @pmix_list_t_class, i64 32), align 8, !tbaa !25
  %.not = icmp eq i32 %3, %4
  br i1 %.not, label %6, label %5

5:                                                ; preds = %1
  tail call void @pmix_class_initialize(ptr noundef nonnull @pmix_list_t_class) #18
  br label %6

6:                                                ; preds = %5, %1
  %7 = getelementptr inbounds nuw i8, ptr %0, i64 160
  %8 = getelementptr inbounds nuw i8, ptr %0, i64 200
  store ptr @pmix_list_t_class, ptr %8, align 8, !tbaa !26
  %9 = getelementptr inbounds nuw i8, ptr %0, i64 208
  store i32 1, ptr %9, align 8, !tbaa !27
  %10 = getelementptr inbounds nuw i8, ptr %0, i64 216
  tail call void @llvm.memset.p0.i64(ptr noundef nonnull align 8 dereferenceable(64) %10, i8 0, i64 64, i1 false)
  %11 = load ptr, ptr getelementptr inbounds nuw (i8, ptr @pmix_list_t_class, i64 40), align 8, !tbaa !28
  %12 = load ptr, ptr %11, align 8, !tbaa !29
  %.not6.i = icmp eq ptr %12, null
  br i1 %.not6.i, label %pmix_obj_run_constructors.exit, label %.lr.ph.i

.lr.ph.i:                                         ; preds = %6, %.lr.ph.i
  %13 = phi ptr [ %15, %.lr.ph.i ], [ %12, %6 ]
  %.07.i = phi ptr [ %14, %.lr.ph.i ], [ %11, %6 ]
  tail call void %13(ptr noundef nonnull %7) #18
  %14 = getelementptr inbounds nuw i8, ptr %.07.i, i64 8
  %15 = load ptr, ptr %14, align 8, !tbaa !29
  %.not.i = icmp eq ptr %15, null
  br i1 %.not.i, label %pmix_obj_run_constructors.exit, label %.lr.ph.i, !llvm.loop !30

pmix_obj_run_constructors.exit:                   ; preds = %.lr.ph.i, %6
  %16 = tail call i64 @time(ptr noundef null) #18
  %17 = getelementptr inbounds nuw i8, ptr %0, i64 432
  store i64 %16, ptr %17, align 8, !tbaa !55
  %18 = getelementptr inbounds nuw i8, ptr %0, i64 440
  store i32 0, ptr %18, align 8, !tbaa !31
  %19 = getelementptr inbounds nuw i8, ptr %0, i64 444
  store i8 1, ptr %19, align 4, !tbaa !52
  ret void
}